target datalayout = "e-m:e-p270:32:32-p271:32:32-p272:64:64-i64:64-i128:128-f80:128-n8:16:32:64-S128"
target triple = "x86_64-pc-linux-gnu"

@proto_register_fddi.ett = internal global [2 x ptr] [ptr @ett_fddi, ptr @ett_fddi_fc], align 16
@.str.18 = private unnamed_addr constant [33 x i8] c"Fiber Distributed Data Interface\00", align 1
@.str.19 = private unnamed_addr constant [5 x i8] c"FDDI\00", align 1
@.str.20 = private unnamed_addr constant [5 x i8] c"fddi\00", align 1
@proto_fddi = internal global i32 0, align 4
@fddi_handle = internal global ptr null, align 8
@.str.21 = private unnamed_addr constant [16 x i8] c"fddi_bitswapped\00", align 1
@fddi_bitswapped_handle = internal global ptr null, align 8
@.str.22 = private unnamed_addr constant [8 x i8] c"padding\00", align 1
@.str.23 = private unnamed_addr constant [39 x i8] c"Add 3-byte padding to all FDDI packets\00", align 1
@.str.24 = private unnamed_addr constant [120 x i8] c"Whether the FDDI dissector should add 3-byte padding to all captured FDDI packets (useful with e.g. Tru64 UNIX tcpdump)\00", align 1
@fddi_padding = internal global i8 0, align 1
@fddi_tap = internal global i32 0, align 4

; Function Attrs: null_pointer_is_valid sspstrong uwtable
define hidden void @proto_register_fddi() #0 {
  %1 = alloca ptr, align 8
  call void @llvm.lifetime.start.p0(i64 8, ptr %1) #6
  %2 = call i32 @proto_register_protocol(ptr noundef @.str.18, ptr noundef @.str.19, ptr noundef @.str.20)
  store i32 %2, ptr @proto_fddi, align 4
  %3 = load i32, ptr @proto_fddi, align 4
  call void @proto_register_field_array(i32 noundef %3, ptr noundef @proto_register_fddi.hf, i32 noundef 8)
  call void @proto_register_subtree_array(ptr noundef @proto_register_fddi.ett, i32 noundef 2)
  %4 = load i32, ptr @proto_fddi, align 4
  %5 = call ptr @register_dissector(ptr noundef @.str.20, ptr noundef @dissect_fddi_not_bitswapped, i32 noundef %4)
  store ptr %5, ptr @fddi_handle, align 8
  %6 = load i32, ptr @proto_fddi, align 4
  %7 = call ptr @register_dissector(ptr noundef @.str.21, ptr noundef @dissect_fddi_bitswapped, i32 noundef %6)
  store ptr %7, ptr @fddi_bitswapped_handle, align 8
  %8 = load i32, ptr @proto_fddi, align 4
  %9 = call ptr @prefs_register_protocol(i32 noundef %8, ptr noundef null)
  store ptr %9, ptr %1, align 8
  %10 = load ptr, ptr %1, align 8
  call void @prefs_register_bool_preference(ptr noundef %10, ptr noundef @.str.22, ptr noundef @.str.23, ptr noundef @.str.24, ptr noundef @fddi_padding)
  %11 = call i32 @register_tap(ptr noundef @.str.20)
  store i32 %11, ptr @fddi_tap, align 4
  %12 = load i32, ptr @proto_fddi, align 4
  call void @register_conversation_table(i32 noundef %12, i1 noundef zeroext true, ptr noundef @fddi_conversation_packet, ptr noundef @fddi_endpoint_packet)
  call void @llvm.lifetime.end.p0(i64 8, ptr %1) #6
  ret void
}