; Function Attrs: null_pointer_is_valid sspstrong uwtable
define hidden void @proto_register_fddi() local_unnamed_addr #0 {
  %1 = tail call i32 @proto_register_protocol(ptr noundef nonnull @.str.18, ptr noundef nonnull @.str.19, ptr noundef nonnull @.str.20)
  store i32 %1, ptr @proto_fddi, align 4
  tail call void @proto_register_field_array(i32 noundef %1, ptr noundef nonnull @proto_register_fddi.hf, i32 noundef 8)
  tail call void @proto_register_subtree_array(ptr noundef nonnull @proto_register_fddi.ett, i32 noundef 2)
  %2 = load i32, ptr @proto_fddi, align 4
  %3 = tail call ptr @register_dissector(ptr noundef nonnull @.str.20, ptr noundef nonnull @dissect_fddi_not_bitswapped, i32 noundef %2)
  store ptr %3, ptr @fddi_handle, align 8
  %4 = load i32, ptr @proto_fddi, align 4
  %5 = tail call ptr @register_dissector(ptr noundef nonnull @.str.21, ptr noundef nonnull @dissect_fddi_bitswapped, i32 noundef %4)
  store ptr %5, ptr @fddi_bitswapped_handle, align 8
  %6 = load i32, ptr @proto_fddi, align 4
  %7 = tail call ptr @prefs_register_protocol(i32 noundef %6, ptr noundef null)
  tail call void @prefs_register_bool_preference(ptr noundef %7, ptr noundef nonnull @.str.22, ptr noundef nonnull @.str.23, ptr noundef nonnull @.str.24, ptr noundef nonnull @fddi_padding)
  %8 = tail call i32 @register_tap(ptr noundef nonnull @.str.20)
  store i32 %8, ptr @fddi_tap, align 4
  %9 = load i32, ptr @proto_fddi, align 4
  tail call void @register_conversation_table(i32 noundef %9, i1 noundef zeroext true, ptr noundef nonnull @fddi_conversation_packet, ptr noundef nonnull @fddi_endpoint_packet)
  ret void
}